target datalayout = "e-m:e-p270:32:32-p271:32:32-p272:64:64-i64:64-i128:128-f80:128-n8:16:32:64-S128"
target triple = "x86_64-pc-linux-gnu"

%"class.std::__cxx11::basic_string" = type { %"struct.std::__cxx11::basic_string<char>::_Alloc_hider", i64, %union.anon }
%"struct.std::__cxx11::basic_string<char>::_Alloc_hider" = type { ptr }
%union.anon = type { i64, [8 x i8] }
%"class.google::protobuf::internal::LogMessage" = type { i32, ptr, i32, %"class.std::__cxx11::basic_string" }
%"class.google::protobuf::internal::LogFinisher" = type { i8 }
%"struct.google::protobuf::internal::InternalMetadata::ContainerBase" = type { ptr }
%"class.google::protobuf::internal::InternalMetadata" = type { i64 }
%"class.google::protobuf::MessageLite" = type { ptr, %"class.google::protobuf::internal::InternalMetadata" }
%"class.google::protobuf::Arena" = type { %"class.google::protobuf::internal::ThreadSafeArena" }
%"class.google::protobuf::internal::ThreadSafeArena" = type { i64, %"class.google::protobuf::internal::TaggedAllocationPolicyPtr", %"struct.std::atomic.2", %"struct.std::atomic.2" }
%"class.google::protobuf::internal::TaggedAllocationPolicyPtr" = type { i64 }
%"struct.std::atomic.2" = type { %"struct.std::__atomic_base.3" }
%"struct.std::__atomic_base.3" = type { ptr }

@.str = private unnamed_addr constant [155 x i8] c"generated/home/dtcxzyw/WorkSpace/Projects/compilers/llvm-opt-benchmark/bench/opencv/opencv/3rdparty/protobuf/src/google/protobuf/generated_message_util.cc\00", align 1
@.str.3 = private unnamed_addr constant [99 x i8] c"CHECK failed: Arena::InternalHelper<MessageLite>::GetOwningArena(submessage) == submessage_arena: \00", align 1
@.str.4 = private unnamed_addr constant [50 x i8] c"CHECK failed: message_arena != submessage_arena: \00", align 1
@.str.5 = private unnamed_addr constant [48 x i8] c"CHECK failed: (submessage_arena) == (nullptr): \00", align 1

; Function Attrs: alwaysinline mustprogress nounwind uwtable
define linkonce_odr hidden noundef zeroext i1 @_ZNK6google8protobuf8internal16InternalMetadata19HasUnknownFieldsTagEv(ptr noundef nonnull align 8 dereferenceable(8) %0) #11 comdat align 2 {
  %2 = alloca ptr, align 8
  store ptr %0, ptr %2, align 8, !tbaa !142
  %3 = load ptr, ptr %2, align 8
  %4 = getelementptr inbounds nuw %"class.google::protobuf::internal::InternalMetadata", ptr %3, i32 0, i32 0
  %5 = load i64, ptr %4, align 8, !tbaa !244
  %6 = and i64 %5, 1
  %7 = icmp ne i64 %6, 0
  ret i1 %7
}

; Function Attrs: mustprogress nounwind uwtable
define linkonce_odr hidden noundef ptr @_ZNK6google8protobuf8internal16InternalMetadata8PtrValueINS0_5ArenaEEEPT_v(ptr noundef nonnull align 8 dereferenceable(8) %0) #4 comdat align 2 {
  %2 = alloca ptr, align 8
  store ptr %0, ptr %2, align 8, !tbaa !142
  %3 = load ptr, ptr %2, align 8
  %4 = getelementptr inbounds nuw %"class.google::protobuf::internal::InternalMetadata", ptr %3, i32 0, i32 0
  %5 = load i64, ptr %4, align 8, !tbaa !244
  %6 = and i64 %5, -4
  %7 = inttoptr i64 %6 to ptr
  ret ptr %7
}

; Function Attrs: mustprogress nounwind uwtable
define linkonce_odr hidden noundef ptr @_ZNK6google8protobuf8internal16InternalMetadata8PtrValueINS2_13ContainerBaseEEEPT_v(ptr noundef nonnull align 8 dereferenceable(8) %0) #4 comdat align 2 {
  %2 = alloca ptr, align 8
  store ptr %0, ptr %2, align 8, !tbaa !142
  %3 = load ptr, ptr %2, align 8
  %4 = getelementptr inbounds nuw %"class.google::protobuf::internal::InternalMetadata", ptr %3, i32 0, i32 0
  %5 = load i64, ptr %4, align 8, !tbaa !244
  %6 = and i64 %5, -4
  %7 = inttoptr i64 %6 to ptr
  ret ptr %7
}

; Function Attrs: alwaysinline mustprogress uwtable
define linkonce_odr hidden noundef zeroext i1 @_ZNK6google8protobuf8internal16InternalMetadata19have_unknown_fieldsEv(ptr noundef nonnull align 8 dereferenceable(8) %0) #7 comdat align 2 {
  %2 = alloca ptr, align 8
  store ptr %0, ptr %2, align 8, !tbaa !142
  %3 = load ptr, ptr %2, align 8
  %4 = call noundef zeroext i1 @_ZNK6google8protobuf8internal16InternalMetadata19HasUnknownFieldsTagEv(ptr noundef nonnull align 8 dereferenceable(8) %3)
  ret i1 %4
}

; Function Attrs: alwaysinline mustprogress uwtable
define linkonce_odr hidden noundef ptr @_ZNK6google8protobuf8internal16InternalMetadata5arenaEv(ptr noundef nonnull align 8 dereferenceable(8) %0) #7 comdat align 2 {
  %2 = alloca ptr, align 8
  %3 = alloca ptr, align 8
  store ptr %0, ptr %3, align 8, !tbaa !142
  %4 = load ptr, ptr %3, align 8
  %5 = call noundef zeroext i1 @_ZNK6google8protobuf8internal16InternalMetadata19have_unknown_fieldsEv(ptr noundef nonnull align 8 dereferenceable(8) %4)
  %6 = zext i1 %5 to i64
  %7 = call i64 @llvm.expect.i64(i64 %6, i64 0)
  %8 = icmp ne i64 %7, 0
  br i1 %8, label %9, label %13

9:                                                ; preds = %1
  %10 = call noundef ptr @_ZNK6google8protobuf8internal16InternalMetadata8PtrValueINS2_13ContainerBaseEEEPT_v(ptr noundef nonnull align 8 dereferenceable(8) %4)
  %11 = getelementptr inbounds nuw %"struct.google::protobuf::internal::InternalMetadata::ContainerBase", ptr %10, i32 0, i32 0
  %12 = load ptr, ptr %11, align 8, !tbaa !264
  store ptr %12, ptr %2, align 8
  br label %15

13:                                               ; preds = %1
  %14 = call noundef ptr @_ZNK6google8protobuf8internal16InternalMetadata8PtrValueINS0_5ArenaEEEPT_v(ptr noundef nonnull align 8 dereferenceable(8) %4)
  store ptr %14, ptr %2, align 8
  br label %15

15:                                               ; preds = %13, %9
  %16 = load ptr, ptr %2, align 8
  ret ptr %16
}

; Function Attrs: alwaysinline mustprogress nounwind uwtable
define linkonce_odr hidden noundef zeroext i1 @_ZNK6google8protobuf8internal16InternalMetadata23HasMessageOwnedArenaTagEv(ptr noundef nonnull align 8 dereferenceable(8) %0) #11 comdat align 2 {
  %2 = alloca ptr, align 8
  store ptr %0, ptr %2, align 8, !tbaa !142
  %3 = load ptr, ptr %2, align 8
  %4 = getelementptr inbounds nuw %"class.google::protobuf::internal::InternalMetadata", ptr %3, i32 0, i32 0
  %5 = load i64, ptr %4, align 8, !tbaa !244
  %6 = and i64 %5, 2
  %7 = icmp ne i64 %6, 0
  ret i1 %7
}

; Function Attrs: alwaysinline mustprogress uwtable
define linkonce_odr hidden noundef ptr @_ZNK6google8protobuf8internal16InternalMetadata12owning_arenaEv(ptr noundef nonnull align 8 dereferenceable(8) %0) #7 comdat align 2 {
  %2 = alloca ptr, align 8
  store ptr %0, ptr %2, align 8, !tbaa !142
  %3 = load ptr, ptr %2, align 8
  %4 = call noundef zeroext i1 @_ZNK6google8protobuf8internal16InternalMetadata23HasMessageOwnedArenaTagEv(ptr noundef nonnull align 8 dereferenceable(8) %3)
  br i1 %4, label %5, label %6

5:                                                ; preds = %1
  br label %8

6:                                                ; preds = %1
  %7 = call noundef ptr @_ZNK6google8protobuf8internal16InternalMetadata5arenaEv(ptr noundef nonnull align 8 dereferenceable(8) %3)
  br label %8

8:                                                ; preds = %6, %5
  %9 = phi ptr [ null, %5 ], [ %7, %6 ]
  ret ptr %9
}

; Function Attrs: alwaysinline mustprogress uwtable
define linkonce_odr hidden void @_ZN6google8protobuf5Arena11OwnInternalINS0_11MessageLiteEEEvPT_St17integral_constantIbLb1EE(ptr noundef nonnull align 8 dereferenceable(32) %0, ptr noundef %1) #7 comdat align 2 {
  %3 = alloca ptr, align 8
  %4 = alloca ptr, align 8
  store ptr %0, ptr %3, align 8, !tbaa !149
  store ptr %1, ptr %4, align 8, !tbaa !15
  %5 = load ptr, ptr %3, align 8
  %6 = load ptr, ptr %4, align 8, !tbaa !15
  %7 = icmp ne ptr %6, null
  br i1 %7, label %8, label %11

8:                                                ; preds = %2
  %9 = getelementptr inbounds nuw %"class.google::protobuf::Arena", ptr %5, i32 0, i32 0
  %10 = load ptr, ptr %4, align 8, !tbaa !15
  call void @_ZN6google8protobuf8internal15ThreadSafeArena10AddCleanupEPvPFvS3_E(ptr noundef nonnull align 8 dereferenceable(32) %9, ptr noundef %10, ptr noundef @_ZN6google8protobuf8internal19arena_delete_objectINS0_11MessageLiteEEEvPv)
  br label %11

11:                                               ; preds = %8, %2
  ret void
}

; Function Attrs: mustprogress uwtable
define linkonce_odr hidden noundef ptr @_ZNK6google8protobuf11MessageLite14GetOwningArenaEv(ptr noundef nonnull align 8 dereferenceable(16) %0) #5 comdat align 2 {
  %2 = alloca ptr, align 8
  store ptr %0, ptr %2, align 8, !tbaa !15
  %3 = load ptr, ptr %2, align 8
  %4 = getelementptr inbounds nuw %"class.google::protobuf::MessageLite", ptr %3, i32 0, i32 1
  %5 = call noundef ptr @_ZNK6google8protobuf8internal16InternalMetadata12owning_arenaEv(ptr noundef nonnull align 8 dereferenceable(8) %4)
  ret ptr %5
}

; Function Attrs: alwaysinline mustprogress uwtable
define linkonce_odr hidden void @_ZN6google8protobuf5Arena3OwnINS0_11MessageLiteEEEvPT_(ptr noundef nonnull align 8 dereferenceable(32) %0, ptr noundef %1) #7 comdat align 2 {
  %3 = alloca ptr, align 8
  %4 = alloca ptr, align 8
  store ptr %0, ptr %3, align 8, !tbaa !149
  store ptr %1, ptr %4, align 8, !tbaa !15
  %5 = load ptr, ptr %3, align 8
  %6 = load ptr, ptr %4, align 8, !tbaa !15
  call void @_ZN6google8protobuf5Arena11OwnInternalINS0_11MessageLiteEEEvPT_St17integral_constantIbLb1EE(ptr noundef nonnull align 8 dereferenceable(32) %5, ptr noundef %6)
  ret void
}

; Function Attrs: mustprogress uwtable
define linkonce_odr hidden noundef ptr @_ZN6google8protobuf5Arena14InternalHelperINS0_11MessageLiteEE14GetOwningArenaEPKS3_(ptr noundef %0) #5 comdat align 2 {
  %2 = alloca ptr, align 8
  store ptr %0, ptr %2, align 8, !tbaa !15
  %3 = load ptr, ptr %2, align 8, !tbaa !15
  %4 = call noundef ptr @_ZNK6google8protobuf11MessageLite14GetOwningArenaEv(ptr noundef nonnull align 8 dereferenceable(16) %3)
  ret ptr %4
}

; Function Attrs: mustprogress uwtable
define hidden noundef ptr @_ZN6google8protobuf8internal23GetOwnedMessageInternalEPNS0_5ArenaEPNS0_11MessageLiteES3_(ptr noundef %0, ptr noundef %1, ptr noundef %2) #5 personality ptr @__gxx_personality_v0 {
  %4 = alloca ptr, align 8
  %5 = alloca ptr, align 8
  %6 = alloca ptr, align 8
  %7 = alloca ptr, align 8
  %8 = alloca %"class.google::protobuf::internal::LogMessage", align 8
  %9 = alloca i1, align 1
  %10 = alloca i1, align 1
  %11 = alloca ptr, align 8
  %12 = alloca i32, align 4
  %13 = alloca %"class.google::protobuf::internal::LogFinisher", align 1
  %14 = alloca %"class.google::protobuf::internal::LogMessage", align 8
  %15 = alloca i1, align 1
  %16 = alloca i1, align 1
  %17 = alloca %"class.google::protobuf::internal::LogFinisher", align 1
  %18 = alloca %"class.google::protobuf::internal::LogMessage", align 8
  %19 = alloca i1, align 1
  %20 = alloca i1, align 1
  %21 = alloca %"class.google::protobuf::internal::LogFinisher", align 1
  %22 = alloca ptr, align 8
  store ptr %0, ptr %5, align 8, !tbaa !149
  store ptr %1, ptr %6, align 8, !tbaa !15
  store ptr %2, ptr %7, align 8, !tbaa !149
  br label %23

23:                                               ; preds = %40, %3
  br i1 false, label %24, label %56

24:                                               ; preds = %23
  %25 = load ptr, ptr %6, align 8, !tbaa !15
  %26 = call noundef ptr @_ZN6google8protobuf5Arena14InternalHelperINS0_11MessageLiteEE14GetOwningArenaEPKS3_(ptr noundef %25)
  %27 = load ptr, ptr %7, align 8, !tbaa !149
  %28 = icmp eq ptr %26, %27
  store i1 false, ptr %9, align 1
  store i1 false, ptr %10, align 1
  call void @llvm.lifetime.start.p0(i64 1, ptr %13) #3
  br i1 %28, label %29, label %30

29:                                               ; preds = %24
  br label %34

30:                                               ; preds = %24
  call void @llvm.lifetime.start.p0(i64 56, ptr %8) #3
  store i1 true, ptr %9, align 1
  call void @_ZN6google8protobuf8internal10LogMessageC1ENS0_8LogLevelEPKci(ptr noundef nonnull align 8 dereferenceable(56) %8, i32 noundef 3, ptr noundef @.str, i32 noundef 762)
  store i1 true, ptr %10, align 1
  %31 = invoke noundef nonnull align 8 dereferenceable(56) ptr @_ZN6google8protobuf8internal10LogMessagelsEPKc(ptr noundef nonnull align 8 dereferenceable(56) %8, ptr noundef @.str.3)
          to label %32 unwind label %41

32:                                               ; preds = %30
  invoke void @_ZN6google8protobuf8internal11LogFinisheraSERNS1_10LogMessageE(ptr noundef nonnull align 1 dereferenceable(1) %13, ptr noundef nonnull align 8 dereferenceable(56) %31)
          to label %33 unwind label %45

33:                                               ; preds = %32
  br label %34

34:                                               ; preds = %33, %29
  call void @llvm.lifetime.end.p0(i64 1, ptr %13) #3
  %35 = load i1, ptr %10, align 1
  br i1 %35, label %36, label %37

36:                                               ; preds = %34
  call void @_ZN6google8protobuf8internal10LogMessageD1Ev(ptr noundef nonnull align 8 dereferenceable(56) %8) #3
  br label %37

37:                                               ; preds = %36, %34
  %38 = load i1, ptr %9, align 1
  br i1 %38, label %39, label %40

39:                                               ; preds = %37
  call void @llvm.lifetime.end.p0(i64 56, ptr %8) #3
  br label %40

40:                                               ; preds = %39, %37
  br label %23, !llvm.loop !151

41:                                               ; preds = %30
  %42 = landingpad { ptr, i32 }
          cleanup
  %43 = extractvalue { ptr, i32 } %42, 0
  store ptr %43, ptr %11, align 8
  %44 = extractvalue { ptr, i32 } %42, 1
  store i32 %44, ptr %12, align 4
  br label %49

45:                                               ; preds = %32
  %46 = landingpad { ptr, i32 }
          cleanup
  %47 = extractvalue { ptr, i32 } %46, 0
  store ptr %47, ptr %11, align 8
  %48 = extractvalue { ptr, i32 } %46, 1
  store i32 %48, ptr %12, align 4
  call void @llvm.lifetime.end.p0(i64 1, ptr %13) #3
  br label %49

49:                                               ; preds = %45, %41
  %50 = load i1, ptr %10, align 1
  br i1 %50, label %51, label %52

51:                                               ; preds = %49
  call void @_ZN6google8protobuf8internal10LogMessageD1Ev(ptr noundef nonnull align 8 dereferenceable(56) %8) #3
  br label %52

52:                                               ; preds = %51, %49
  %53 = load i1, ptr %9, align 1
  br i1 %53, label %54, label %55

54:                                               ; preds = %52
  call void @llvm.lifetime.end.p0(i64 56, ptr %8) #3
  br label %55

55:                                               ; preds = %54, %52
  br label %146

56:                                               ; preds = %23
  br label %57

57:                                               ; preds = %73, %56
  br i1 false, label %58, label %89

58:                                               ; preds = %57
  %59 = load ptr, ptr %5, align 8, !tbaa !149
  %60 = load ptr, ptr %7, align 8, !tbaa !149
  %61 = icmp ne ptr %59, %60
  store i1 false, ptr %15, align 1
  store i1 false, ptr %16, align 1
  call void @llvm.lifetime.start.p0(i64 1, ptr %17) #3
  br i1 %61, label %62, label %63

62:                                               ; preds = %58
  br label %67

63:                                               ; preds = %58
  call void @llvm.lifetime.start.p0(i64 56, ptr %14) #3
  store i1 true, ptr %15, align 1
  call void @_ZN6google8protobuf8internal10LogMessageC1ENS0_8LogLevelEPKci(ptr noundef nonnull align 8 dereferenceable(56) %14, i32 noundef 3, ptr noundef @.str, i32 noundef 763)
  store i1 true, ptr %16, align 1
  %64 = invoke noundef nonnull align 8 dereferenceable(56) ptr @_ZN6google8protobuf8internal10LogMessagelsEPKc(ptr noundef nonnull align 8 dereferenceable(56) %14, ptr noundef @.str.4)
          to label %65 unwind label %74

65:                                               ; preds = %63
  invoke void @_ZN6google8protobuf8internal11LogFinisheraSERNS1_10LogMessageE(ptr noundef nonnull align 1 dereferenceable(1) %17, ptr noundef nonnull align 8 dereferenceable(56) %64)
          to label %66 unwind label %78

66:                                               ; preds = %65
  br label %67

67:                                               ; preds = %66, %62
  call void @llvm.lifetime.end.p0(i64 1, ptr %17) #3
  %68 = load i1, ptr %16, align 1
  br i1 %68, label %69, label %70

69:                                               ; preds = %67
  call void @_ZN6google8protobuf8internal10LogMessageD1Ev(ptr noundef nonnull align 8 dereferenceable(56) %14) #3
  br label %70

70:                                               ; preds = %69, %67
  %71 = load i1, ptr %15, align 1
  br i1 %71, label %72, label %73

72:                                               ; preds = %70
  call void @llvm.lifetime.end.p0(i64 56, ptr %14) #3
  br label %73

73:                                               ; preds = %72, %70
  br label %57, !llvm.loop !152

74:                                               ; preds = %63
  %75 = landingpad { ptr, i32 }
          cleanup
  %76 = extractvalue { ptr, i32 } %75, 0
  store ptr %76, ptr %11, align 8
  %77 = extractvalue { ptr, i32 } %75, 1
  store i32 %77, ptr %12, align 4
  br label %82

78:                                               ; preds = %65
  %79 = landingpad { ptr, i32 }
          cleanup
  %80 = extractvalue { ptr, i32 } %79, 0
  store ptr %80, ptr %11, align 8
  %81 = extractvalue { ptr, i32 } %79, 1
  store i32 %81, ptr %12, align 4
  call void @llvm.lifetime.end.p0(i64 1, ptr %17) #3
  br label %82

82:                                               ; preds = %78, %74
  %83 = load i1, ptr %16, align 1
  br i1 %83, label %84, label %85

84:                                               ; preds = %82
  call void @_ZN6google8protobuf8internal10LogMessageD1Ev(ptr noundef nonnull align 8 dereferenceable(56) %14) #3
  br label %85

85:                                               ; preds = %84, %82
  %86 = load i1, ptr %15, align 1
  br i1 %86, label %87, label %88

87:                                               ; preds = %85
  call void @llvm.lifetime.end.p0(i64 56, ptr %14) #3
  br label %88

88:                                               ; preds = %87, %85
  br label %146

89:                                               ; preds = %57
  br label %90

90:                                               ; preds = %105, %89
  br i1 false, label %91, label %121

91:                                               ; preds = %90
  %92 = load ptr, ptr %7, align 8, !tbaa !149
  %93 = icmp eq ptr %92, null
  store i1 false, ptr %19, align 1
  store i1 false, ptr %20, align 1
  call void @llvm.lifetime.start.p0(i64 1, ptr %21) #3
  br i1 %93, label %94, label %95

94:                                               ; preds = %91
  br label %99

95:                                               ; preds = %91
  call void @llvm.lifetime.start.p0(i64 56, ptr %18) #3
  store i1 true, ptr %19, align 1
  call void @_ZN6google8protobuf8internal10LogMessageC1ENS0_8LogLevelEPKci(ptr noundef nonnull align 8 dereferenceable(56) %18, i32 noundef 3, ptr noundef @.str, i32 noundef 764)
  store i1 true, ptr %20, align 1
  %96 = invoke noundef nonnull align 8 dereferenceable(56) ptr @_ZN6google8protobuf8internal10LogMessagelsEPKc(ptr noundef nonnull align 8 dereferenceable(56) %18, ptr noundef @.str.5)
          to label %97 unwind label %106

97:                                               ; preds = %95
  invoke void @_ZN6google8protobuf8internal11LogFinisheraSERNS1_10LogMessageE(ptr noundef nonnull align 1 dereferenceable(1) %21, ptr noundef nonnull align 8 dereferenceable(56) %96)
          to label %98 unwind label %110

98:                                               ; preds = %97
  br label %99

99:                                               ; preds = %98, %94
  call void @llvm.lifetime.end.p0(i64 1, ptr %21) #3
  %100 = load i1, ptr %20, align 1
  br i1 %100, label %101, label %102

101:                                              ; preds = %99
  call void @_ZN6google8protobuf8internal10LogMessageD1Ev(ptr noundef nonnull align 8 dereferenceable(56) %18) #3
  br label %102

102:                                              ; preds = %101, %99
  %103 = load i1, ptr %19, align 1
  br i1 %103, label %104, label %105

104:                                              ; preds = %102
  call void @llvm.lifetime.end.p0(i64 56, ptr %18) #3
  br label %105

105:                                              ; preds = %104, %102
  br label %90, !llvm.loop !153

106:                                              ; preds = %95
  %107 = landingpad { ptr, i32 }
          cleanup
  %108 = extractvalue { ptr, i32 } %107, 0
  store ptr %108, ptr %11, align 8
  %109 = extractvalue { ptr, i32 } %107, 1
  store i32 %109, ptr %12, align 4
  br label %114

110:                                              ; preds = %97
  %111 = landingpad { ptr, i32 }
          cleanup
  %112 = extractvalue { ptr, i32 } %111, 0
  store ptr %112, ptr %11, align 8
  %113 = extractvalue { ptr, i32 } %111, 1
  store i32 %113, ptr %12, align 4
  call void @llvm.lifetime.end.p0(i64 1, ptr %21) #3
  br label %114

114:                                              ; preds = %110, %106
  %115 = load i1, ptr %20, align 1
  br i1 %115, label %116, label %117

116:                                              ; preds = %114
  call void @_ZN6google8protobuf8internal10LogMessageD1Ev(ptr noundef nonnull align 8 dereferenceable(56) %18) #3
  br label %117

117:                                              ; preds = %116, %114
  %118 = load i1, ptr %19, align 1
  br i1 %118, label %119, label %120

119:                                              ; preds = %117
  call void @llvm.lifetime.end.p0(i64 56, ptr %18) #3
  br label %120

120:                                              ; preds = %119, %117
  br label %146

121:                                              ; preds = %90
  %122 = load ptr, ptr %5, align 8, !tbaa !149
  %123 = icmp ne ptr %122, null
  br i1 %123, label %124, label %131

124:                                              ; preds = %121
  %125 = load ptr, ptr %7, align 8, !tbaa !149
  %126 = icmp eq ptr %125, null
  br i1 %126, label %127, label %131

127:                                              ; preds = %124
  %128 = load ptr, ptr %5, align 8, !tbaa !149
  %129 = load ptr, ptr %6, align 8, !tbaa !15
  call void @_ZN6google8protobuf5Arena3OwnINS0_11MessageLiteEEEvPT_(ptr noundef nonnull align 8 dereferenceable(32) %128, ptr noundef %129)
  %130 = load ptr, ptr %6, align 8, !tbaa !15
  store ptr %130, ptr %4, align 8
  br label %144

131:                                              ; preds = %124, %121
  call void @llvm.lifetime.start.p0(i64 8, ptr %22) #3
  %132 = load ptr, ptr %6, align 8, !tbaa !15
  %133 = load ptr, ptr %5, align 8, !tbaa !149
  %134 = load ptr, ptr %132, align 8, !tbaa !7
  %135 = getelementptr inbounds ptr, ptr %134, i64 3
  %136 = load ptr, ptr %135, align 8
  %137 = call noundef ptr %136(ptr noundef nonnull align 8 dereferenceable(16) %132, ptr noundef %133)
  store ptr %137, ptr %22, align 8, !tbaa !15
  %138 = load ptr, ptr %22, align 8, !tbaa !15
  %139 = load ptr, ptr %6, align 8, !tbaa !15
  %140 = load ptr, ptr %138, align 8, !tbaa !7
  %141 = getelementptr inbounds ptr, ptr %140, i64 7
  %142 = load ptr, ptr %141, align 8
  call void %142(ptr noundef nonnull align 8 dereferenceable(16) %138, ptr noundef nonnull align 8 dereferenceable(16) %139)
  %143 = load ptr, ptr %22, align 8, !tbaa !15
  store ptr %143, ptr %4, align 8
  call void @llvm.lifetime.end.p0(i64 8, ptr %22) #3
  br label %144

144:                                              ; preds = %131, %127
  %145 = load ptr, ptr %4, align 8
  ret ptr %145

146:                                              ; preds = %120, %88, %55
  %147 = load ptr, ptr %11, align 8
  %148 = load i32, ptr %12, align 4
  %149 = insertvalue { ptr, i32 } poison, ptr %147, 0
  %150 = insertvalue { ptr, i32 } %149, i32 %148, 1
  resume { ptr, i32 } %150
}