; Function Attrs: mustprogress uwtable
define hidden noundef ptr @_ZN6google8protobuf8internal23GetOwnedMessageInternalEPNS0_5ArenaEPNS0_11MessageLiteES3_(ptr noundef %0, ptr noundef %1, ptr noundef readnone %2) local_unnamed_addr #4 personality ptr @__gxx_personality_v0 {
  %4 = icmp ne ptr %0, null
  %5 = icmp eq ptr %2, null
  %or.cond = and i1 %4, %5
  br i1 %or.cond, label %6, label %8

6:                                                ; preds = %3
  %.not.i = icmp eq ptr %1, null
  br i1 %.not.i, label %_ZN6google8protobuf5Arena11OwnInternalINS0_11MessageLiteEEEvPT_St17integral_constantIbLb1EE.exit, label %7

7:                                                ; preds = %6
  tail call void @_ZN6google8protobuf8internal15ThreadSafeArena10AddCleanupEPvPFvS3_E(ptr noundef nonnull align 8 dereferenceable(32) %0, ptr noundef nonnull %1, ptr noundef nonnull @_ZN6google8protobuf8internal19arena_delete_objectINS0_11MessageLiteEEEvPv)
  br label %_ZN6google8protobuf5Arena11OwnInternalINS0_11MessageLiteEEEvPT_St17integral_constantIbLb1EE.exit

8:                                                ; preds = %3
  %9 = load ptr, ptr %1, align 8, !tbaa !3
  %10 = getelementptr inbounds nuw i8, ptr %9, i64 24
  %11 = load ptr, ptr %10, align 8
  %12 = tail call noundef ptr %11(ptr noundef nonnull align 8 dereferenceable(16) %1, ptr noundef %0)
  %13 = load ptr, ptr %12, align 8, !tbaa !3
  %14 = getelementptr inbounds nuw i8, ptr %13, i64 56
  %15 = load ptr, ptr %14, align 8
  tail call void %15(ptr noundef nonnull align 8 dereferenceable(16) %12, ptr noundef nonnull align 8 dereferenceable(16) %1)
  br label %_ZN6google8protobuf5Arena11OwnInternalINS0_11MessageLiteEEEvPT_St17integral_constantIbLb1EE.exit

_ZN6google8protobuf5Arena11OwnInternalINS0_11MessageLiteEEEvPT_St17integral_constantIbLb1EE.exit: ; preds = %7, %6, %8
  %.0 = phi ptr [ %12, %8 ], [ null, %6 ], [ %1, %7 ]
  ret ptr %.0
}